target datalayout = "e-m:e-p270:32:32-p271:32:32-p272:64:64-i64:64-i128:128-f80:128-n8:16:32:64-S128"
target triple = "x86_64-unknown-linux-gnu"

%"struct.node::AssertionInfo" = type { ptr, ptr, ptr }
%"class.v8::LocalBase" = type { %"class.v8::IndirectHandleBase" }
%"class.v8::IndirectHandleBase" = type { ptr }
%"class.v8::Local" = type { %"class.v8::LocalBase" }
%"class.v8::LocalBase.1" = type { %"class.v8::IndirectHandleBase" }
%"class.v8::Local.0" = type { %"class.v8::LocalBase.1" }
%"class.v8::FunctionCallbackInfo" = type <{ ptr, ptr, i32, [4 x i8] }>

@_ZZN4node23IsConstructCallCallbackERKN2v820FunctionCallbackInfoINS0_5ValueEEEE4args = internal constant %"struct.node::AssertionInfo" { ptr @.str, ptr @.str.1, ptr @.str.2 }, align 8

; Function Attrs: mustprogress nounwind uwtable
define linkonce_odr dso_local void @_ZN4node9StreamReq11ResetObjectEN2v85LocalINS1_6ObjectEEE(ptr %obj.coerce) #4 comdat align 2 {
entry:
  %slot.addr.i14 = alloca ptr, align 8
  %slot.addr.i = alloca ptr, align 8
  %this.addr.i.i9 = alloca ptr, align 8
  %this.addr.i10 = alloca ptr, align 8
  %this.addr.i.i = alloca ptr, align 8
  %this.addr.i7 = alloca ptr, align 8
  %this.addr.i4 = alloca ptr, align 8
  %this.addr.i = alloca ptr, align 8
  %obj = alloca %"class.v8::Local", align 8
  %coerce.dive = getelementptr inbounds %"class.v8::Local", ptr %obj, i32 0, i32 0
  %coerce.dive1 = getelementptr inbounds %"class.v8::LocalBase", ptr %coerce.dive, i32 0, i32 0
  %coerce.dive2 = getelementptr inbounds %"class.v8::IndirectHandleBase", ptr %coerce.dive1, i32 0, i32 0
  store ptr %obj.coerce, ptr %coerce.dive2, align 8
  store ptr %obj, ptr %this.addr.i4, align 8
  %this1.i5 = load ptr, ptr %this.addr.i4, align 8
  store ptr %this1.i5, ptr %this.addr.i7, align 8
  %this1.i8 = load ptr, ptr %this.addr.i7, align 8
  store ptr %this1.i8, ptr %this.addr.i.i, align 8
  %this1.i.i = load ptr, ptr %this.addr.i.i, align 8
  %0 = load ptr, ptr %this1.i.i, align 8
  store ptr %0, ptr %slot.addr.i14, align 8
  %1 = load ptr, ptr %slot.addr.i14, align 8
  call void @_ZN2v86Object32SetAlignedPointerInInternalFieldEiPv(ptr noundef nonnull align 1 dereferenceable(1) %1, i32 noundef 1, ptr noundef null)
  store ptr %obj, ptr %this.addr.i, align 8
  %this1.i = load ptr, ptr %this.addr.i, align 8
  store ptr %this1.i, ptr %this.addr.i10, align 8
  %this1.i11 = load ptr, ptr %this.addr.i10, align 8
  store ptr %this1.i11, ptr %this.addr.i.i9, align 8
  %this1.i.i12 = load ptr, ptr %this.addr.i.i9, align 8
  %2 = load ptr, ptr %this1.i.i12, align 8
  store ptr %2, ptr %slot.addr.i, align 8
  %3 = load ptr, ptr %slot.addr.i, align 8
  call void @_ZN2v86Object32SetAlignedPointerInInternalFieldEiPv(ptr noundef nonnull align 1 dereferenceable(1) %3, i32 noundef 2, ptr noundef null)
  ret void
}

; Function Attrs: mustprogress nounwind uwtable
define dso_local void @_ZN4node23IsConstructCallCallbackERKN2v820FunctionCallbackInfoINS0_5ValueEEE(ptr noundef nonnull align 8 dereferenceable(20) %args) #4 {
entry:
  %this.addr.i.i.i46 = alloca ptr, align 8
  %location.addr.i.i.i47 = alloca ptr, align 8
  %this.addr.i.i48 = alloca ptr, align 8
  %location.addr.i.i49 = alloca ptr, align 8
  %retval.i50 = alloca %"class.v8::LocalBase", align 8
  %slot.addr.i51 = alloca ptr, align 8
  %this.addr.i.i41 = alloca ptr, align 8
  %other.addr.i.i = alloca ptr, align 8
  %retval.i42 = alloca %"class.v8::Local", align 8
  %slot.addr.i43 = alloca ptr, align 8
  %ref.tmp.i44 = alloca %"class.v8::LocalBase", align 8
  %value.addr.i40 = alloca i64, align 8
  %shift_bits.i = alloca i32, align 4
  %heap_object_ptr.addr.i.i34 = alloca i64, align 8
  %offset.addr.i.i35 = alloca i32, align 4
  %addr.i.i36 = alloca i64, align 8
  %heap_object_ptr.addr.i = alloca i64, align 8
  %offset.addr.i = alloca i32, align 4
  %value.addr.i32 = alloca i64, align 8
  %obj.addr.i = alloca i64, align 8
  %value.addr.i30 = alloca i64, align 8
  %value.addr.i = alloca ptr, align 8
  %heap_object_ptr.addr.i.i = alloca i64, align 8
  %offset.addr.i.i = alloca i32, align 4
  %addr.i.i = alloca i64, align 8
  %heap_object_ptr.addr.i2.i.i = alloca i64, align 8
  %offset.addr.i3.i.i = alloca i32, align 4
  %addr.i.i.i = alloca i64, align 8
  %heap_object_ptr.addr.i.i.i = alloca i64, align 8
  %offset.addr.i.i.i = alloca i32, align 4
  %obj.addr.i.i = alloca i64, align 8
  %map.i.i = alloca i64, align 8
  %retval.i26 = alloca i1, align 1
  %this.addr.i27 = alloca ptr, align 8
  %obj.i = alloca i64, align 8
  %this.addr.i24 = alloca ptr, align 8
  %this.addr.i.i9.i = alloca ptr, align 8
  %location.addr.i.i.i = alloca ptr, align 8
  %this.addr.i.i19 = alloca ptr, align 8
  %location.addr.i.i = alloca ptr, align 8
  %retval.i7.i = alloca %"class.v8::LocalBase.1", align 8
  %slot.addr.i8.i = alloca ptr, align 8
  %this.addr.i.i.i = alloca ptr, align 8
  %other.addr.i.i.i = alloca ptr, align 8
  %retval.i.i = alloca %"class.v8::Local.0", align 8
  %slot.addr.i.i = alloca ptr, align 8
  %ref.tmp.i.i = alloca %"class.v8::LocalBase.1", align 8
  %retval.i20 = alloca %"class.v8::Local.0", align 8
  %this.addr.i21 = alloca ptr, align 8
  %slot.addr.i = alloca ptr, align 8
  %this.addr.i.i = alloca ptr, align 8
  %this.addr.i17 = alloca ptr, align 8
  %this.addr.i14 = alloca ptr, align 8
  %retval.i = alloca %"class.v8::Local", align 8
  %this.addr.i11 = alloca ptr, align 8
  %this.addr.i = alloca ptr, align 8
  %ref.tmp.i = alloca %"class.v8::Local.0", align 8
  %args.addr = alloca ptr, align 8
  %agg.tmp = alloca %"class.v8::Local", align 8
  store ptr %args, ptr %args.addr, align 8
  br label %do.body

do.body:                                          ; preds = %entry
  %0 = load ptr, ptr %args.addr, align 8
  store ptr %0, ptr %this.addr.i, align 8
  %this1.i = load ptr, ptr %this.addr.i, align 8
  store ptr %this1.i, ptr %this.addr.i21, align 8
  %this1.i22 = load ptr, ptr %this.addr.i21, align 8
  %1 = load ptr, ptr %this1.i22, align 8
  %arrayidx.i = getelementptr inbounds i64, ptr %1, i64 5
  store ptr %arrayidx.i, ptr %slot.addr.i.i, align 8
  %2 = load ptr, ptr %slot.addr.i.i, align 8
  store ptr %2, ptr %slot.addr.i8.i, align 8
  %3 = load ptr, ptr %slot.addr.i8.i, align 8
  store ptr %retval.i7.i, ptr %this.addr.i.i19, align 8
  store ptr %3, ptr %location.addr.i.i, align 8
  %this1.i.i23 = load ptr, ptr %this.addr.i.i19, align 8
  %4 = load ptr, ptr %location.addr.i.i, align 8
  store ptr %this1.i.i23, ptr %this.addr.i.i9.i, align 8
  store ptr %4, ptr %location.addr.i.i.i, align 8
  %this1.i.i10.i = load ptr, ptr %this.addr.i.i9.i, align 8
  %5 = load ptr, ptr %location.addr.i.i.i, align 8
  store ptr %5, ptr %this1.i.i10.i, align 8
  %6 = load ptr, ptr %retval.i7.i, align 8
  store ptr %6, ptr %ref.tmp.i.i, align 8
  store ptr %retval.i.i, ptr %this.addr.i.i.i, align 8
  store ptr %ref.tmp.i.i, ptr %other.addr.i.i.i, align 8
  %this1.i.i.i = load ptr, ptr %this.addr.i.i.i, align 8
  %7 = load ptr, ptr %other.addr.i.i.i, align 8
  call void @llvm.memcpy.p0.p0.i64(ptr align 8 %this1.i.i.i, ptr align 8 %7, i64 8, i1 false)
  %8 = load ptr, ptr %retval.i.i, align 8
  store ptr %8, ptr %retval.i20, align 8
  %9 = load ptr, ptr %retval.i20, align 8
  store ptr %9, ptr %ref.tmp.i, align 8
  store ptr %ref.tmp.i, ptr %this.addr.i14, align 8
  %this1.i15 = load ptr, ptr %this.addr.i14, align 8
  store ptr %this1.i15, ptr %this.addr.i17, align 8
  %this1.i18 = load ptr, ptr %this.addr.i17, align 8
  store ptr %this1.i18, ptr %this.addr.i.i, align 8
  %this1.i.i = load ptr, ptr %this.addr.i.i, align 8
  %10 = load ptr, ptr %this1.i.i, align 8
  store ptr %10, ptr %slot.addr.i, align 8
  %11 = load ptr, ptr %slot.addr.i, align 8
  store ptr %11, ptr %this.addr.i24, align 8
  %this1.i25 = load ptr, ptr %this.addr.i24, align 8
  store ptr %this1.i25, ptr %this.addr.i27, align 8
  %this1.i28 = load ptr, ptr %this.addr.i27, align 8
  store ptr %this1.i28, ptr %value.addr.i, align 8
  %12 = load ptr, ptr %value.addr.i, align 8
  %13 = load i64, ptr %12, align 8
  store i64 %13, ptr %obj.i, align 8
  %14 = load i64, ptr %obj.i, align 8
  store i64 %14, ptr %value.addr.i30, align 8
  %15 = load i64, ptr %value.addr.i30, align 8
  %and.i = and i64 %15, 3
  %cmp.i31 = icmp eq i64 %and.i, 1
  br i1 %cmp.i31, label %if.end.i, label %if.then.i

if.then.i:                                        ; preds = %do.body
  store i1 false, ptr %retval.i26, align 1
  br label %_ZNK2v85Value16QuickIsUndefinedEv.exit

if.end.i:                                         ; preds = %do.body
  %16 = load i64, ptr %obj.i, align 8
  store i64 %16, ptr %obj.addr.i.i, align 8
  %17 = load i64, ptr %obj.addr.i.i, align 8
  store i64 %17, ptr %heap_object_ptr.addr.i.i.i, align 8
  store i32 0, ptr %offset.addr.i.i.i, align 4
  %18 = load i64, ptr %heap_object_ptr.addr.i.i.i, align 8
  %19 = load i32, ptr %offset.addr.i.i.i, align 4
  store i64 %18, ptr %heap_object_ptr.addr.i2.i.i, align 8
  store i32 %19, ptr %offset.addr.i3.i.i, align 4
  %20 = load i64, ptr %heap_object_ptr.addr.i2.i.i, align 8
  %21 = load i32, ptr %offset.addr.i3.i.i, align 4
  %conv.i.i.i = sext i32 %21 to i64
  %add.i.i.i = add i64 %20, %conv.i.i.i
  %sub.i.i.i = sub i64 %add.i.i.i, 1
  store i64 %sub.i.i.i, ptr %addr.i.i.i, align 8
  %22 = load i64, ptr %addr.i.i.i, align 8
  %23 = inttoptr i64 %22 to ptr
  %24 = load i64, ptr %23, align 8
  store i64 %24, ptr %map.i.i, align 8
  %25 = load i64, ptr %map.i.i, align 8
  store i64 %25, ptr %heap_object_ptr.addr.i.i, align 8
  store i32 12, ptr %offset.addr.i.i, align 4
  %26 = load i64, ptr %heap_object_ptr.addr.i.i, align 8
  %27 = load i32, ptr %offset.addr.i.i, align 4
  %conv.i8.i = sext i32 %27 to i64
  %add.i.i = add i64 %26, %conv.i8.i
  %sub.i.i = sub i64 %add.i.i, 1
  store i64 %sub.i.i, ptr %addr.i.i, align 8
  %28 = load i64, ptr %addr.i.i, align 8
  %29 = inttoptr i64 %28 to ptr
  %30 = load i16, ptr %29, align 2
  %conv.i.i = zext i16 %30 to i32
  %cmp.i = icmp ne i32 %conv.i.i, 131
  br i1 %cmp.i, label %if.then4.i, label %if.end5.i

if.then4.i:                                       ; preds = %if.end.i
  store i1 false, ptr %retval.i26, align 1
  br label %_ZNK2v85Value16QuickIsUndefinedEv.exit

if.end5.i:                                        ; preds = %if.end.i
  %31 = load i64, ptr %obj.i, align 8
  store i64 %31, ptr %obj.addr.i, align 8
  %32 = load i64, ptr %obj.addr.i, align 8
  store i64 %32, ptr %heap_object_ptr.addr.i, align 8
  store i32 40, ptr %offset.addr.i, align 4
  %33 = load i64, ptr %heap_object_ptr.addr.i, align 8
  %34 = load i32, ptr %offset.addr.i, align 4
  store i64 %33, ptr %heap_object_ptr.addr.i.i34, align 8
  store i32 %34, ptr %offset.addr.i.i35, align 4
  %35 = load i64, ptr %heap_object_ptr.addr.i.i34, align 8
  %36 = load i32, ptr %offset.addr.i.i35, align 4
  %conv.i.i37 = sext i32 %36 to i64
  %add.i.i38 = add i64 %35, %conv.i.i37
  %sub.i.i39 = sub i64 %add.i.i38, 1
  store i64 %sub.i.i39, ptr %addr.i.i36, align 8
  %37 = load i64, ptr %addr.i.i36, align 8
  %38 = inttoptr i64 %37 to ptr
  %39 = load i64, ptr %38, align 8
  store i64 %39, ptr %value.addr.i32, align 8
  %40 = load i64, ptr %value.addr.i32, align 8
  store i64 %40, ptr %value.addr.i40, align 8
  store i32 32, ptr %shift_bits.i, align 4
  %41 = load i64, ptr %value.addr.i40, align 8
  %42 = load i32, ptr %shift_bits.i, align 4
  %sh_prom.i = zext i32 %42 to i64
  %shr.i = ashr i64 %41, %sh_prom.i
  %conv.i = trunc i64 %shr.i to i32
  %cmp7.i = icmp eq i32 %conv.i, 5
  store i1 %cmp7.i, ptr %retval.i26, align 1
  br label %_ZNK2v85Value16QuickIsUndefinedEv.exit

_ZNK2v85Value16QuickIsUndefinedEv.exit:           ; preds = %if.end5.i, %if.then4.i, %if.then.i
  %43 = load i1, ptr %retval.i26, align 1
  %lnot.i = xor i1 %43, true
  %lnot = xor i1 %lnot.i, true
  %lnot1 = xor i1 %lnot, true
  %lnot2 = xor i1 %lnot1, true
  br i1 %lnot2, label %if.then, label %if.end

if.then:                                          ; preds = %_ZNK2v85Value16QuickIsUndefinedEv.exit
  br label %do.body3

do.body3:                                         ; preds = %if.then
  call void @_ZN4node6AssertERKNS_13AssertionInfoE(ptr noundef nonnull align 8 dereferenceable(24) @_ZZN4node23IsConstructCallCallbackERKN2v820FunctionCallbackInfoINS0_5ValueEEEE4args)
  call void @abort() #12
  unreachable

do.end:                                           ; No predecessors!
  br label %if.end

if.end:                                           ; preds = %do.end, %_ZNK2v85Value16QuickIsUndefinedEv.exit
  br label %do.end4

do.end4:                                          ; preds = %if.end
  %44 = load ptr, ptr %args.addr, align 8
  store ptr %44, ptr %this.addr.i11, align 8
  %this1.i12 = load ptr, ptr %this.addr.i11, align 8
  %values_.i = getelementptr inbounds %"class.v8::FunctionCallbackInfo", ptr %this1.i12, i32 0, i32 1
  %45 = load ptr, ptr %values_.i, align 8
  %add.ptr.i = getelementptr inbounds i64, ptr %45, i64 -1
  store ptr %add.ptr.i, ptr %slot.addr.i43, align 8
  %46 = load ptr, ptr %slot.addr.i43, align 8
  store ptr %46, ptr %slot.addr.i51, align 8
  %47 = load ptr, ptr %slot.addr.i51, align 8
  store ptr %retval.i50, ptr %this.addr.i.i48, align 8
  store ptr %47, ptr %location.addr.i.i49, align 8
  %this1.i.i52 = load ptr, ptr %this.addr.i.i48, align 8
  %48 = load ptr, ptr %location.addr.i.i49, align 8
  store ptr %this1.i.i52, ptr %this.addr.i.i.i46, align 8
  store ptr %48, ptr %location.addr.i.i.i47, align 8
  %this1.i.i.i53 = load ptr, ptr %this.addr.i.i.i46, align 8
  %49 = load ptr, ptr %location.addr.i.i.i47, align 8
  store ptr %49, ptr %this1.i.i.i53, align 8
  %50 = load ptr, ptr %retval.i50, align 8
  store ptr %50, ptr %ref.tmp.i44, align 8
  store ptr %retval.i42, ptr %this.addr.i.i41, align 8
  store ptr %ref.tmp.i44, ptr %other.addr.i.i, align 8
  %this1.i.i45 = load ptr, ptr %this.addr.i.i41, align 8
  %51 = load ptr, ptr %other.addr.i.i, align 8
  call void @llvm.memcpy.p0.p0.i64(ptr align 8 %this1.i.i45, ptr align 8 %51, i64 8, i1 false)
  %52 = load ptr, ptr %retval.i42, align 8
  store ptr %52, ptr %retval.i, align 8
  %53 = load ptr, ptr %retval.i, align 8
  %coerce.dive = getelementptr inbounds %"class.v8::Local", ptr %agg.tmp, i32 0, i32 0
  %coerce.dive6 = getelementptr inbounds %"class.v8::LocalBase", ptr %coerce.dive, i32 0, i32 0
  %coerce.dive7 = getelementptr inbounds %"class.v8::IndirectHandleBase", ptr %coerce.dive6, i32 0, i32 0
  store ptr %53, ptr %coerce.dive7, align 8
  %coerce.dive8 = getelementptr inbounds %"class.v8::Local", ptr %agg.tmp, i32 0, i32 0
  %coerce.dive9 = getelementptr inbounds %"class.v8::LocalBase", ptr %coerce.dive8, i32 0, i32 0
  %coerce.dive10 = getelementptr inbounds %"class.v8::IndirectHandleBase", ptr %coerce.dive9, i32 0, i32 0
  %54 = load ptr, ptr %coerce.dive10, align 8
  call void @_ZN4node9StreamReq11ResetObjectEN2v85LocalINS1_6ObjectEEE(ptr %54)
  ret void
}